target datalayout = "e-m:e-p270:32:32-p271:32:32-p272:64:64-i64:64-i128:128-f80:128-n8:16:32:64-S128"
target triple = "x86_64-pc-linux-gnu"

%struct.jv = type { i8, i8, i16, i32, %union.anon }
%union.anon = type { ptr }
%struct.jq_util_input_state = type { ptr, ptr, ptr, ptr, ptr, i32, i32, i32, %struct.jv, [4096 x i8], i64, %struct.jv, i64 }

; Function Attrs: nounwind uwtable
define dso_local void @jq_util_input_add_input(ptr noundef %0, ptr noundef %1) #0 {
  %3 = alloca ptr, align 8
  %4 = alloca ptr, align 8
  store ptr %0, ptr %3, align 8, !tbaa !20
  store ptr %1, ptr %4, align 8, !tbaa !4
  %5 = load ptr, ptr %3, align 8, !tbaa !20
  %6 = getelementptr inbounds nuw %struct.jq_util_input_state, ptr %5, i32 0, i32 4
  %7 = load ptr, ptr %6, align 8, !tbaa !33
  %8 = load ptr, ptr %3, align 8, !tbaa !20
  %9 = getelementptr inbounds nuw %struct.jq_util_input_state, ptr %8, i32 0, i32 5
  %10 = load i32, ptr %9, align 8, !tbaa !32
  %11 = add nsw i32 %10, 1
  %12 = sext i32 %11 to i64
  %13 = mul i64 %12, 8
  %14 = call ptr @jv_mem_realloc(ptr noundef %7, i64 noundef %13)
  %15 = load ptr, ptr %3, align 8, !tbaa !20
  %16 = getelementptr inbounds nuw %struct.jq_util_input_state, ptr %15, i32 0, i32 4
  store ptr %14, ptr %16, align 8, !tbaa !33
  %17 = load ptr, ptr %4, align 8, !tbaa !4
  %18 = call ptr @jv_mem_strdup(ptr noundef %17)
  %19 = load ptr, ptr %3, align 8, !tbaa !20
  %20 = getelementptr inbounds nuw %struct.jq_util_input_state, ptr %19, i32 0, i32 4
  %21 = load ptr, ptr %20, align 8, !tbaa !33
  %22 = load ptr, ptr %3, align 8, !tbaa !20
  %23 = getelementptr inbounds nuw %struct.jq_util_input_state, ptr %22, i32 0, i32 5
  %24 = load i32, ptr %23, align 8, !tbaa !32
  %25 = add nsw i32 %24, 1
  store i32 %25, ptr %23, align 8, !tbaa !32
  %26 = sext i32 %24 to i64
  %27 = getelementptr inbounds ptr, ptr %21, i64 %26
  store ptr %18, ptr %27, align 8, !tbaa !4
  ret void
}