; Function Attrs: nounwind uwtable
define dso_local void @jq_util_input_add_input(ptr noundef captures(none) %0, ptr noundef %1) local_unnamed_addr #0 {
  %3 = getelementptr inbounds nuw i8, ptr %0, i64 32
  %4 = load ptr, ptr %3, align 8, !tbaa !23
  %5 = getelementptr inbounds nuw i8, ptr %0, i64 40
  %6 = load i32, ptr %5, align 8, !tbaa !22
  %7 = add nsw i32 %6, 1
  %8 = sext i32 %7 to i64
  %9 = shl nsw i64 %8, 3
  %10 = tail call ptr @jv_mem_realloc(ptr noundef %4, i64 noundef %9) #13
  store ptr %10, ptr %3, align 8, !tbaa !23
  %11 = tail call ptr @jv_mem_strdup(ptr noundef %1) #13
  %12 = load ptr, ptr %3, align 8, !tbaa !23
  %13 = load i32, ptr %5, align 8, !tbaa !22
  %14 = add nsw i32 %13, 1
  store i32 %14, ptr %5, align 8, !tbaa !22
  %15 = sext i32 %13 to i64
  %16 = getelementptr inbounds ptr, ptr %12, i64 %15
  store ptr %11, ptr %16, align 8, !tbaa !24
  ret void
}